; Function Attrs: mustprogress uwtable
define internal void @_ZL70InitDefaultsscc_info_SelfTestData_Sample_sentencepiece_5fmodel_2eprotov() #3 personality ptr @__gxx_personality_v0 {
  tail call void @_ZN6google8protobuf8internal13VerifyVersionEiiPKc(i32 noundef 3014000, i32 noundef 3014000, ptr noundef nonnull @.str.12)
  store ptr null, ptr getelementptr inbounds nuw (i8, ptr @_ZN13sentencepiece38_SelfTestData_Sample_default_instance_E, i64 8), align 8, !tbaa !3
  store ptr getelementptr inbounds nuw inrange(-16, 112) (i8, ptr @_ZTVN13sentencepiece19SelfTestData_SampleE, i64 16), ptr @_ZN13sentencepiece38_SelfTestData_Sample_default_instance_E, align 8, !tbaa !8
  store i32 0, ptr getelementptr inbounds nuw (i8, ptr @_ZN13sentencepiece38_SelfTestData_Sample_default_instance_E, i64 16), align 8, !tbaa !11
  store i32 0, ptr getelementptr inbounds nuw (i8, ptr @_ZN13sentencepiece38_SelfTestData_Sample_default_instance_E, i64 20), align 4, !tbaa !13
  %1 = load atomic i32, ptr @scc_info_SelfTestData_Sample_sentencepiece_5fmodel_2eproto acquire, align 8
  %.not.i.i.i.i = icmp eq i32 %1, 0
  br i1 %.not.i.i.i.i, label %_ZN13sentencepiece19SelfTestData_SampleC2Ev.exit, label %2, !prof !10

2:                                                ; preds = %0
  tail call void @_ZN6google8protobuf8internal11InitSCCImplEPNS1_11SCCInfoBaseE(ptr noundef nonnull @scc_info_SelfTestData_Sample_sentencepiece_5fmodel_2eproto)
  br label %_ZN13sentencepiece19SelfTestData_SampleC2Ev.exit

_ZN13sentencepiece19SelfTestData_SampleC2Ev.exit: ; preds = %0, %2
  store ptr @_ZN6google8protobuf8internal26fixed_address_empty_stringE, ptr getelementptr inbounds nuw (i8, ptr @_ZN13sentencepiece38_SelfTestData_Sample_default_instance_E, i64 24), align 8, !tbaa !15
  store ptr @_ZN6google8protobuf8internal26fixed_address_empty_stringE, ptr getelementptr inbounds nuw (i8, ptr @_ZN13sentencepiece38_SelfTestData_Sample_default_instance_E, i64 32), align 8, !tbaa !15
  tail call void @_ZN6google8protobuf8internal13OnShutdownRunEPFvPKvES3_(ptr noundef nonnull @_ZN6google8protobuf8internal14DestroyMessageEPKv, ptr noundef nonnull @_ZN13sentencepiece38_SelfTestData_Sample_default_instance_E)
  ret void
}